; Function Attrs: mustprogress nounwind uwtable
define internal fastcc void @_ZN4llvm15SmallVectorImplIN12_GLOBAL__N_129CounterCoverageMappingBuilder13BreakContinueEE12emplace_backIJEEERS3_DpOT_(ptr noundef nonnull align 8 dereferenceable(16) %0) unnamed_addr #0 align 2 {
  %2 = tail call noundef i64 @_ZNK4llvm15SmallVectorBaseIjE4sizeEv(ptr noundef nonnull align 8 dereferenceable(16) %0) #22
  %3 = tail call noundef i64 @_ZNK4llvm15SmallVectorBaseIjE8capacityEv(ptr noundef nonnull align 8 dereferenceable(16) %0) #22
  %.not = icmp ult i64 %2, %3
  br i1 %.not, label %12, label %4

4:                                                ; preds = %1
  %5 = tail call noundef i64 @_ZNK4llvm15SmallVectorBaseIjE4sizeEv(ptr noundef nonnull align 8 dereferenceable(16) %0) #22
  %6 = add i64 %5, 1
  %7 = tail call noundef i64 @_ZNK4llvm15SmallVectorBaseIjE8capacityEv(ptr noundef nonnull align 8 dereferenceable(16) %0) #22
  %.not.i.i.i.i = icmp ugt i64 %6, %7
  br i1 %.not.i.i.i.i, label %8, label %_ZN4llvm23SmallVectorTemplateBaseIN12_GLOBAL__N_129CounterCoverageMappingBuilder13BreakContinueELb1EE18growAndEmplaceBackIJEEERS3_DpOT_.exit

8:                                                ; preds = %4
  %9 = getelementptr inbounds i8, ptr %0, i64 16
  tail call void @_ZN4llvm15SmallVectorBaseIjE8grow_podEPvmm(ptr noundef nonnull align 8 dereferenceable(16) %0, ptr noundef nonnull %9, i64 noundef %6, i64 noundef 16) #22
  br label %_ZN4llvm23SmallVectorTemplateBaseIN12_GLOBAL__N_129CounterCoverageMappingBuilder13BreakContinueELb1EE18growAndEmplaceBackIJEEERS3_DpOT_.exit

_ZN4llvm23SmallVectorTemplateBaseIN12_GLOBAL__N_129CounterCoverageMappingBuilder13BreakContinueELb1EE18growAndEmplaceBackIJEEERS3_DpOT_.exit: ; preds = %4, %8
  %.val.i.i.i = load ptr, ptr %0, align 8
  %10 = tail call noundef i64 @_ZNK4llvm15SmallVectorBaseIjE4sizeEv(ptr noundef nonnull align 8 dereferenceable(16) %0) #22
  %11 = getelementptr inbounds %"struct.(anonymous namespace)::CounterCoverageMappingBuilder::BreakContinue", ptr %.val.i.i.i, i64 %10
  tail call void @llvm.memset.p0.i64(ptr noundef nonnull align 1 dereferenceable(16) %11, i8 0, i64 16, i1 false)
  br label %15

12:                                               ; preds = %1
  %.val.i = load ptr, ptr %0, align 8
  %13 = tail call noundef i64 @_ZNK4llvm15SmallVectorBaseIjE4sizeEv(ptr noundef nonnull align 8 dereferenceable(16) %0) #22
  %14 = getelementptr inbounds %"struct.(anonymous namespace)::CounterCoverageMappingBuilder::BreakContinue", ptr %.val.i, i64 %13
  tail call void @llvm.memset.p0.i64(ptr noundef nonnull align 4 dereferenceable(16) %14, i8 0, i64 16, i1 false)
  br label %15

15:                                               ; preds = %12, %_ZN4llvm23SmallVectorTemplateBaseIN12_GLOBAL__N_129CounterCoverageMappingBuilder13BreakContinueELb1EE18growAndEmplaceBackIJEEERS3_DpOT_.exit
  %16 = tail call noundef i64 @_ZNK4llvm15SmallVectorBaseIjE4sizeEv(ptr noundef nonnull align 8 dereferenceable(16) %0) #22
  %17 = add i64 %16, 1
  tail call void @_ZN4llvm15SmallVectorBaseIjE8set_sizeEm(ptr noundef nonnull align 8 dereferenceable(16) %0, i64 noundef %17) #22
  %18 = tail call noundef i64 @_ZNK4llvm15SmallVectorBaseIjE4sizeEv(ptr noundef nonnull align 8 dereferenceable(16) %0) #22
  ret void
}